target datalayout = "e-m:e-p270:32:32-p271:32:32-p272:64:64-i64:64-i128:128-f80:128-n8:16:32:64-S128"
target triple = "x86_64-pc-linux-gnu"

@hf_gryphon_reserved = internal global i32 0, align 4
@hf_gryphon_sched_num_iterations = internal global i32 0, align 4
@hf_gryphon_sched_flags = internal global i32 0, align 4
@hf_gryphon_sched_flags_scheduler = internal global i32 0, align 4
@hf_gryphon_sched_sleep = internal global i32 0, align 4
@hf_gryphon_sched_transmit_count = internal global i32 0, align 4
@hf_gryphon_sched_transmit_period = internal global i32 0, align 4
@hf_gryphon_sched_transmit_flags = internal global i32 0, align 4
@hf_gryphon_sched_skip_transmit_period = internal global i32 0, align 4
@hf_gryphon_sched_skip_sleep = internal global i32 0, align 4
@hf_gryphon_sched_channel = internal global i32 0, align 4
@hf_gryphon_sched_channel0 = internal global i32 0, align 4
@ett_gryphon_flags = internal global i32 0, align 4
@ett_gryphon_cmd_sched_data = internal global i32 0, align 4
@ett_gryphon_cmd_sched_cmd = internal global i32 0, align 4
@.str.1059 = private unnamed_addr constant [11 x i8] c"\22infinite\22\00", align 1
@.str.1060 = private unnamed_addr constant [11 x i8] c"Message %d\00", align 1
@.str.1061 = private unnamed_addr constant [8 x i8] c"Message\00", align 1

; Function Attrs: null_pointer_is_valid sspstrong uwtable
define internal i32 @cmd_sched(ptr noundef %0, i32 noundef %1, ptr noundef %2) #0 {
  %4 = alloca ptr, align 8
  %5 = alloca i32, align 4
  %6 = alloca ptr, align 8
  %7 = alloca i32, align 4
  %8 = alloca ptr, align 8
  %9 = alloca ptr, align 8
  %10 = alloca ptr, align 8
  %11 = alloca ptr, align 8
  %12 = alloca i32, align 4
  %13 = alloca i32, align 4
  %14 = alloca i32, align 4
  %15 = alloca i32, align 4
  %16 = alloca i8, align 1
  store ptr %0, ptr %4, align 8
  store i32 %1, ptr %5, align 4
  store ptr %2, ptr %6, align 8
  call void @llvm.lifetime.start.p0(i64 4, ptr %7) #7
  call void @llvm.lifetime.start.p0(i64 8, ptr %8) #7
  call void @llvm.lifetime.start.p0(i64 8, ptr %9) #7
  call void @llvm.lifetime.start.p0(i64 8, ptr %10) #7
  call void @llvm.lifetime.start.p0(i64 8, ptr %11) #7
  call void @llvm.lifetime.start.p0(i64 4, ptr %12) #7
  call void @llvm.lifetime.start.p0(i64 4, ptr %13) #7
  call void @llvm.lifetime.start.p0(i64 4, ptr %14) #7
  call void @llvm.lifetime.start.p0(i64 4, ptr %15) #7
  call void @llvm.lifetime.start.p0(i64 1, ptr %16) #7
  %17 = load ptr, ptr %4, align 8
  %18 = load i32, ptr %5, align 4
  %19 = sub i32 %18, 9
  %20 = call zeroext i8 @tvb_get_uint8(ptr noundef %17, i32 noundef %19)
  store i8 %20, ptr %16, align 1
  %21 = load ptr, ptr %4, align 8
  %22 = load i32, ptr %5, align 4
  %23 = call i32 @tvb_reported_length_remaining(ptr noundef %21, i32 noundef %22)
  store i32 %23, ptr %7, align 4
  %24 = load ptr, ptr %4, align 8
  %25 = load i32, ptr %5, align 4
  %26 = call i32 @tvb_get_ntohl(ptr noundef %24, i32 noundef %25)
  %27 = icmp eq i32 %26, -1
  br i1 %27, label %28, label %34

28:                                               ; preds = %3
  %29 = load ptr, ptr %6, align 8
  %30 = load i32, ptr @hf_gryphon_sched_num_iterations, align 4
  %31 = load ptr, ptr %4, align 8
  %32 = load i32, ptr %5, align 4
  %33 = call ptr (ptr, i32, ptr, i32, i32, i32, ptr, ...) @proto_tree_add_uint_format_value(ptr noundef %29, i32 noundef %30, ptr noundef %31, i32 noundef %32, i32 noundef 4, i32 noundef 0, ptr noundef @.str.1059)
  br label %40

34:                                               ; preds = %3
  %35 = load ptr, ptr %6, align 8
  %36 = load i32, ptr @hf_gryphon_sched_num_iterations, align 4
  %37 = load ptr, ptr %4, align 8
  %38 = load i32, ptr %5, align 4
  %39 = call ptr @proto_tree_add_item(ptr noundef %35, i32 noundef %36, ptr noundef %37, i32 noundef %38, i32 noundef 4, i32 noundef 0)
  br label %40

40:                                               ; preds = %34, %28
  %41 = load i32, ptr %5, align 4
  %42 = add i32 %41, 4
  store i32 %42, ptr %5, align 4
  %43 = load i32, ptr %7, align 4
  %44 = sub i32 %43, 4
  store i32 %44, ptr %7, align 4
  %45 = load ptr, ptr %6, align 8
  %46 = load i32, ptr @hf_gryphon_sched_flags, align 4
  %47 = load ptr, ptr %4, align 8
  %48 = load i32, ptr %5, align 4
  %49 = call ptr @proto_tree_add_item(ptr noundef %45, i32 noundef %46, ptr noundef %47, i32 noundef %48, i32 noundef 4, i32 noundef 0)
  store ptr %49, ptr %8, align 8
  %50 = load ptr, ptr %8, align 8
  %51 = load i32, ptr @ett_gryphon_flags, align 4
  %52 = call ptr @proto_item_add_subtree(ptr noundef %50, i32 noundef %51)
  store ptr %52, ptr %10, align 8
  %53 = load ptr, ptr %10, align 8
  %54 = load i32, ptr @hf_gryphon_sched_flags_scheduler, align 4
  %55 = load ptr, ptr %4, align 8
  %56 = load i32, ptr %5, align 4
  %57 = call ptr @proto_tree_add_item(ptr noundef %53, i32 noundef %54, ptr noundef %55, i32 noundef %56, i32 noundef 4, i32 noundef 0)
  %58 = load i32, ptr %5, align 4
  %59 = add i32 %58, 4
  store i32 %59, ptr %5, align 4
  %60 = load i32, ptr %7, align 4
  %61 = sub i32 %60, 4
  store i32 %61, ptr %7, align 4
  store i32 1, ptr %13, align 4
  br label %62

62:                                               ; preds = %172, %40
  %63 = load i32, ptr %7, align 4
  %64 = icmp sgt i32 %63, 0
  br i1 %64, label %65, label %201

65:                                               ; preds = %62
  %66 = load ptr, ptr %4, align 8
  %67 = load i32, ptr %5, align 4
  %68 = add i32 %67, 16
  %69 = call zeroext i8 @tvb_get_uint8(ptr noundef %66, i32 noundef %68)
  %70 = zext i8 %69 to i32
  %71 = add i32 16, %70
  %72 = load ptr, ptr %4, align 8
  %73 = load i32, ptr %5, align 4
  %74 = add i32 %73, 18
  %75 = call zeroext i16 @tvb_get_ntohs(ptr noundef %72, i32 noundef %74)
  %76 = zext i16 %75 to i32
  %77 = add i32 %71, %76
  %78 = load ptr, ptr %4, align 8
  %79 = load i32, ptr %5, align 4
  %80 = add i32 %79, 20
  %81 = call zeroext i8 @tvb_get_uint8(ptr noundef %78, i32 noundef %80)
  %82 = zext i8 %81 to i32
  %83 = add i32 %77, %82
  %84 = add i32 %83, 16
  store i32 %84, ptr %15, align 4
  %85 = load i32, ptr %15, align 4
  %86 = add i32 %85, 3
  %87 = urem i32 %86, 4
  %88 = sub i32 3, %87
  %89 = load i32, ptr %15, align 4
  %90 = add i32 %89, %88
  store i32 %90, ptr %15, align 4
  %91 = load ptr, ptr %6, align 8
  %92 = load ptr, ptr %4, align 8
  %93 = load i32, ptr %5, align 4
  %94 = load i32, ptr %15, align 4
  %95 = load i32, ptr @ett_gryphon_cmd_sched_data, align 4
  %96 = load i32, ptr %13, align 4
  %97 = call ptr (ptr, ptr, i32, i32, i32, ptr, ptr, ...) @proto_tree_add_subtree_format(ptr noundef %91, ptr noundef %92, i32 noundef %93, i32 noundef %94, i32 noundef %95, ptr noundef null, ptr noundef @.str.1060, i32 noundef %96)
  store ptr %97, ptr %10, align 8
  %98 = load ptr, ptr %10, align 8
  %99 = load i32, ptr @hf_gryphon_sched_sleep, align 4
  %100 = load ptr, ptr %4, align 8
  %101 = load i32, ptr %5, align 4
  %102 = call ptr @proto_tree_add_item(ptr noundef %98, i32 noundef %99, ptr noundef %100, i32 noundef %101, i32 noundef 4, i32 noundef 0)
  %103 = load i32, ptr %5, align 4
  %104 = add i32 %103, 4
  store i32 %104, ptr %5, align 4
  %105 = load i32, ptr %7, align 4
  %106 = sub i32 %105, 4
  store i32 %106, ptr %7, align 4
  %107 = load ptr, ptr %10, align 8
  %108 = load i32, ptr @hf_gryphon_sched_transmit_count, align 4
  %109 = load ptr, ptr %4, align 8
  %110 = load i32, ptr %5, align 4
  %111 = call ptr @proto_tree_add_item(ptr noundef %107, i32 noundef %108, ptr noundef %109, i32 noundef %110, i32 noundef 4, i32 noundef 0)
  %112 = load i32, ptr %5, align 4
  %113 = add i32 %112, 4
  store i32 %113, ptr %5, align 4
  %114 = load i32, ptr %7, align 4
  %115 = sub i32 %114, 4
  store i32 %115, ptr %7, align 4
  %116 = load ptr, ptr %10, align 8
  %117 = load i32, ptr @hf_gryphon_sched_transmit_period, align 4
  %118 = load ptr, ptr %4, align 8
  %119 = load i32, ptr %5, align 4
  %120 = call ptr @proto_tree_add_item(ptr noundef %116, i32 noundef %117, ptr noundef %118, i32 noundef %119, i32 noundef 4, i32 noundef 0)
  %121 = load i32, ptr %5, align 4
  %122 = add i32 %121, 4
  store i32 %122, ptr %5, align 4
  %123 = load i32, ptr %7, align 4
  %124 = sub i32 %123, 4
  store i32 %124, ptr %7, align 4
  %125 = load ptr, ptr %10, align 8
  %126 = load i32, ptr @hf_gryphon_sched_transmit_flags, align 4
  %127 = load ptr, ptr %4, align 8
  %128 = load i32, ptr %5, align 4
  %129 = call ptr @proto_tree_add_item(ptr noundef %125, i32 noundef %126, ptr noundef %127, i32 noundef %128, i32 noundef 2, i32 noundef 0)
  store ptr %129, ptr %9, align 8
  %130 = load ptr, ptr %9, align 8
  %131 = load i32, ptr @ett_gryphon_flags, align 4
  %132 = call ptr @proto_item_add_subtree(ptr noundef %130, i32 noundef %131)
  store ptr %132, ptr %11, align 8
  %133 = load ptr, ptr %11, align 8
  %134 = load i32, ptr @hf_gryphon_sched_skip_transmit_period, align 4
  %135 = load ptr, ptr %4, align 8
  %136 = load i32, ptr %5, align 4
  %137 = call ptr @proto_tree_add_item(ptr noundef %133, i32 noundef %134, ptr noundef %135, i32 noundef %136, i32 noundef 2, i32 noundef 0)
  %138 = load i32, ptr %13, align 4
  %139 = icmp eq i32 %138, 1
  br i1 %139, label %140, label %146

140:                                              ; preds = %65
  %141 = load ptr, ptr %11, align 8
  %142 = load i32, ptr @hf_gryphon_sched_skip_sleep, align 4
  %143 = load ptr, ptr %4, align 8
  %144 = load i32, ptr %5, align 4
  %145 = call ptr @proto_tree_add_item(ptr noundef %141, i32 noundef %142, ptr noundef %143, i32 noundef %144, i32 noundef 2, i32 noundef 0)
  br label %146

146:                                              ; preds = %140, %65
  %147 = load ptr, ptr %4, align 8
  %148 = load i32, ptr %5, align 4
  %149 = add i32 %148, 2
  %150 = call zeroext i8 @tvb_get_uint8(ptr noundef %147, i32 noundef %149)
  %151 = zext i8 %150 to i32
  store i32 %151, ptr %14, align 4
  %152 = load i32, ptr %14, align 4
  %153 = icmp eq i32 %152, 0
  br i1 %153, label %154, label %164

154:                                              ; preds = %146
  %155 = load i8, ptr %16, align 1
  %156 = zext i8 %155 to i32
  store i32 %156, ptr %14, align 4
  %157 = load ptr, ptr %10, align 8
  %158 = load i32, ptr @hf_gryphon_sched_channel0, align 4
  %159 = load ptr, ptr %4, align 8
  %160 = load i32, ptr %5, align 4
  %161 = add i32 %160, 2
  %162 = load i32, ptr %14, align 4
  %163 = call ptr @proto_tree_add_uint(ptr noundef %157, i32 noundef %158, ptr noundef %159, i32 noundef %161, i32 noundef 1, i32 noundef %162)
  br label %172

164:                                              ; preds = %146
  %165 = load ptr, ptr %10, align 8
  %166 = load i32, ptr @hf_gryphon_sched_channel, align 4
  %167 = load ptr, ptr %4, align 8
  %168 = load i32, ptr %5, align 4
  %169 = add i32 %168, 2
  %170 = load i32, ptr %14, align 4
  %171 = call ptr @proto_tree_add_uint(ptr noundef %165, i32 noundef %166, ptr noundef %167, i32 noundef %169, i32 noundef 1, i32 noundef %170)
  br label %172

172:                                              ; preds = %164, %154
  %173 = load ptr, ptr %10, align 8
  %174 = load i32, ptr @hf_gryphon_reserved, align 4
  %175 = load ptr, ptr %4, align 8
  %176 = load i32, ptr %5, align 4
  %177 = add i32 %176, 3
  %178 = call ptr @proto_tree_add_item(ptr noundef %173, i32 noundef %174, ptr noundef %175, i32 noundef %177, i32 noundef 1, i32 noundef 0)
  %179 = load i32, ptr %5, align 4
  %180 = add i32 %179, 4
  store i32 %180, ptr %5, align 4
  %181 = load i32, ptr %7, align 4
  %182 = sub i32 %181, 4
  store i32 %182, ptr %7, align 4
  %183 = load ptr, ptr %10, align 8
  %184 = load ptr, ptr %4, align 8
  %185 = load i32, ptr %5, align 4
  %186 = load i32, ptr %7, align 4
  %187 = load i32, ptr @ett_gryphon_cmd_sched_cmd, align 4
  %188 = call ptr @proto_tree_add_subtree(ptr noundef %183, ptr noundef %184, i32 noundef %185, i32 noundef %186, i32 noundef %187, ptr noundef null, ptr noundef @.str.1061)
  store ptr %188, ptr %11, align 8
  %189 = load i32, ptr %5, align 4
  store i32 %189, ptr %12, align 4
  %190 = load ptr, ptr %4, align 8
  %191 = load i32, ptr %5, align 4
  %192 = load ptr, ptr %11, align 8
  %193 = call i32 @decode_data(ptr noundef %190, i32 noundef %191, ptr noundef %192)
  store i32 %193, ptr %5, align 4
  %194 = load i32, ptr %5, align 4
  %195 = load i32, ptr %12, align 4
  %196 = sub i32 %194, %195
  %197 = load i32, ptr %7, align 4
  %198 = sub i32 %197, %196
  store i32 %198, ptr %7, align 4
  %199 = load i32, ptr %13, align 4
  %200 = add i32 %199, 1
  store i32 %200, ptr %13, align 4
  br label %62, !llvm.loop !19

201:                                              ; preds = %62
  %202 = load i32, ptr %5, align 4
  call void @llvm.lifetime.end.p0(i64 1, ptr %16) #7
  call void @llvm.lifetime.end.p0(i64 4, ptr %15) #7
  call void @llvm.lifetime.end.p0(i64 4, ptr %14) #7
  call void @llvm.lifetime.end.p0(i64 4, ptr %13) #7
  call void @llvm.lifetime.end.p0(i64 4, ptr %12) #7
  call void @llvm.lifetime.end.p0(i64 8, ptr %11) #7
  call void @llvm.lifetime.end.p0(i64 8, ptr %10) #7
  call void @llvm.lifetime.end.p0(i64 8, ptr %9) #7
  call void @llvm.lifetime.end.p0(i64 8, ptr %8) #7
  call void @llvm.lifetime.end.p0(i64 4, ptr %7) #7
  ret i32 %202
}