; Function Attrs: null_pointer_is_valid sspstrong uwtable
define internal fastcc i32 @cmd_sched(ptr noundef %0, ptr noundef %1) unnamed_addr #0 {
  %3 = tail call zeroext i8 @tvb_get_uint8(ptr noundef %0, i32 noundef 3)
  %4 = tail call i32 @tvb_reported_length_remaining(ptr noundef %0, i32 noundef 12)
  %5 = tail call i32 @tvb_get_ntohl(ptr noundef %0, i32 noundef 12)
  %6 = icmp eq i32 %5, -1
  %7 = load i32, ptr @hf_gryphon_sched_num_iterations, align 4
  br i1 %6, label %8, label %10

8:                                                ; preds = %2
  %9 = tail call ptr (ptr, i32, ptr, i32, i32, i32, ptr, ...) @proto_tree_add_uint_format_value(ptr noundef %1, i32 noundef %7, ptr noundef %0, i32 noundef 12, i32 noundef 4, i32 noundef 0, ptr noundef nonnull @.str.1059)
  br label %12

10:                                               ; preds = %2
  %11 = tail call ptr @proto_tree_add_item(ptr noundef %1, i32 noundef %7, ptr noundef %0, i32 noundef 12, i32 noundef 4, i32 noundef 0)
  br label %12

12:                                               ; preds = %10, %8
  %13 = load i32, ptr @hf_gryphon_sched_flags, align 4
  %14 = tail call ptr @proto_tree_add_item(ptr noundef %1, i32 noundef %13, ptr noundef %0, i32 noundef 16, i32 noundef 4, i32 noundef 0)
  %15 = load i32, ptr @ett_gryphon_flags, align 4
  %16 = tail call ptr @proto_item_add_subtree(ptr noundef %14, i32 noundef %15)
  %17 = load i32, ptr @hf_gryphon_sched_flags_scheduler, align 4
  %18 = tail call ptr @proto_tree_add_item(ptr noundef %16, i32 noundef %17, ptr noundef %0, i32 noundef 16, i32 noundef 4, i32 noundef 0)
  %19 = add i32 %4, -8
  %20 = icmp sgt i32 %19, 0
  br i1 %20, label %.lr.ph, label %._crit_edge

.lr.ph:                                           ; preds = %12, %59
  %.098 = phi i32 [ %71, %59 ], [ 20, %12 ]
  %.09297 = phi i32 [ %72, %59 ], [ %19, %12 ]
  %.09396 = phi i32 [ %73, %59 ], [ 1, %12 ]
  %21 = add i32 %.098, 16
  %22 = tail call zeroext i8 @tvb_get_uint8(ptr noundef %0, i32 noundef %21)
  %23 = zext i8 %22 to i32
  %24 = add nuw nsw i32 %23, 16
  %25 = add i32 %.098, 18
  %26 = tail call zeroext i16 @tvb_get_ntohs(ptr noundef %0, i32 noundef %25)
  %27 = zext i16 %26 to i32
  %28 = add nuw nsw i32 %24, %27
  %29 = add i32 %.098, 20
  %30 = tail call zeroext i8 @tvb_get_uint8(ptr noundef %0, i32 noundef %29)
  %31 = zext i8 %30 to i32
  %32 = add nuw nsw i32 %28, %31
  %33 = add nuw nsw i32 %32, 16
  %34 = add nuw nsw i32 %32, 3
  %35 = and i32 %34, 3
  %36 = xor i32 %35, 3
  %37 = add nuw nsw i32 %33, %36
  %38 = load i32, ptr @ett_gryphon_cmd_sched_data, align 4
  %39 = tail call ptr (ptr, ptr, i32, i32, i32, ptr, ptr, ...) @proto_tree_add_subtree_format(ptr noundef %1, ptr noundef %0, i32 noundef %.098, i32 noundef %37, i32 noundef %38, ptr noundef null, ptr noundef nonnull @.str.1060, i32 noundef %.09396)
  %40 = load i32, ptr @hf_gryphon_sched_sleep, align 4
  %41 = tail call ptr @proto_tree_add_item(ptr noundef %39, i32 noundef %40, ptr noundef %0, i32 noundef %.098, i32 noundef 4, i32 noundef 0)
  %42 = add i32 %.098, 4
  %43 = load i32, ptr @hf_gryphon_sched_transmit_count, align 4
  %44 = tail call ptr @proto_tree_add_item(ptr noundef %39, i32 noundef %43, ptr noundef %0, i32 noundef %42, i32 noundef 4, i32 noundef 0)
  %45 = add i32 %.098, 8
  %46 = load i32, ptr @hf_gryphon_sched_transmit_period, align 4
  %47 = tail call ptr @proto_tree_add_item(ptr noundef %39, i32 noundef %46, ptr noundef %0, i32 noundef %45, i32 noundef 4, i32 noundef 0)
  %48 = add i32 %.098, 12
  %49 = load i32, ptr @hf_gryphon_sched_transmit_flags, align 4
  %50 = tail call ptr @proto_tree_add_item(ptr noundef %39, i32 noundef %49, ptr noundef %0, i32 noundef %48, i32 noundef 2, i32 noundef 0)
  %51 = load i32, ptr @ett_gryphon_flags, align 4
  %52 = tail call ptr @proto_item_add_subtree(ptr noundef %50, i32 noundef %51)
  %53 = load i32, ptr @hf_gryphon_sched_skip_transmit_period, align 4
  %54 = tail call ptr @proto_tree_add_item(ptr noundef %52, i32 noundef %53, ptr noundef %0, i32 noundef %48, i32 noundef 2, i32 noundef 0)
  %55 = icmp eq i32 %.09396, 1
  br i1 %55, label %56, label %59

56:                                               ; preds = %.lr.ph
  %57 = load i32, ptr @hf_gryphon_sched_skip_sleep, align 4
  %58 = tail call ptr @proto_tree_add_item(ptr noundef %52, i32 noundef %57, ptr noundef %0, i32 noundef %48, i32 noundef 2, i32 noundef 0)
  br label %59

59:                                               ; preds = %56, %.lr.ph
  %60 = add i32 %.098, 14
  %61 = tail call zeroext i8 @tvb_get_uint8(ptr noundef %0, i32 noundef %60)
  %62 = icmp eq i8 %61, 0
  %.sink99.v = select i1 %62, i8 %3, i8 %61
  %.sink99 = zext i8 %.sink99.v to i32
  %hf_gryphon_sched_channel0.val = load i32, ptr @hf_gryphon_sched_channel0, align 4
  %hf_gryphon_sched_channel.val = load i32, ptr @hf_gryphon_sched_channel, align 4
  %63 = select i1 %62, i32 %hf_gryphon_sched_channel0.val, i32 %hf_gryphon_sched_channel.val
  %64 = tail call ptr @proto_tree_add_uint(ptr noundef %39, i32 noundef %63, ptr noundef %0, i32 noundef %60, i32 noundef 1, i32 noundef %.sink99)
  %65 = load i32, ptr @hf_gryphon_reserved, align 4
  %66 = add i32 %.098, 15
  %67 = tail call ptr @proto_tree_add_item(ptr noundef %39, i32 noundef %65, ptr noundef %0, i32 noundef %66, i32 noundef 1, i32 noundef 0)
  %68 = add nsw i32 %.09297, -16
  %69 = load i32, ptr @ett_gryphon_cmd_sched_cmd, align 4
  %70 = tail call ptr @proto_tree_add_subtree(ptr noundef %39, ptr noundef %0, i32 noundef %21, i32 noundef %68, i32 noundef %69, ptr noundef null, ptr noundef nonnull @.str.1061)
  %71 = tail call fastcc i32 @decode_data(ptr noundef %0, i32 noundef %21, ptr noundef %70)
  %.neg = add i32 %.098, %.09297
  %72 = sub i32 %.neg, %71
  %73 = add i32 %.09396, 1
  %74 = icmp sgt i32 %72, 0
  br i1 %74, label %.lr.ph, label %._crit_edge, !llvm.loop !19

._crit_edge:                                      ; preds = %59, %12
  %.0.lcssa = phi i32 [ 20, %12 ], [ %71, %59 ]
  ret i32 %.0.lcssa
}